; Function Attrs: mustprogress nounwind uwtable
define hidden void @_ZN19ShenandoahGCSessionC2EN7GCCause5CauseE(ptr noundef nonnull align 8 dereferenceable(56) %0, i32 noundef %1) unnamed_addr #0 align 2 {
  %3 = alloca %class.TimeInstant, align 8
  %4 = alloca %class.TimeInstant, align 16
  %5 = load ptr, ptr @_ZN8Universe14_collectedHeapE, align 8
  store ptr %5, ptr %0, align 8
  %6 = getelementptr inbounds i8, ptr %0, i64 8
  %7 = tail call noundef ptr @_ZNK14ShenandoahHeap8gc_timerEv(ptr noundef nonnull align 8 dereferenceable(2657) %5) #12
  store ptr %7, ptr %6, align 8
  %8 = getelementptr inbounds i8, ptr %0, i64 16
  %9 = load ptr, ptr %0, align 8
  %10 = tail call noundef ptr @_ZN14ShenandoahHeap6tracerEv(ptr noundef nonnull align 8 dereferenceable(2657) %9) #12
  store ptr %10, ptr %8, align 8
  %11 = getelementptr inbounds i8, ptr %0, i64 24
  %12 = load ptr, ptr %0, align 8
  %13 = getelementptr inbounds i8, ptr %12, i64 1632
  %14 = load ptr, ptr %13, align 8
  tail call void @_ZN25ShenandoahCollectorPolicy23record_collection_causeEN7GCCause5CauseE(ptr noundef nonnull align 8 dereferenceable(528) %14, i32 noundef %1) #12
  %15 = load ptr, ptr %0, align 8
  tail call void @_ZN13CollectedHeap12set_gc_causeEN7GCCause5CauseE(ptr noundef nonnull align 8 dereferenceable(104) %15, i32 noundef %1) #12
  %16 = load ptr, ptr %6, align 8
  %17 = tail call { i64, i64 } @_ZN29CompositeElapsedCounterSource3nowEv() #12
  %18 = extractvalue { i64, i64 } %17, 0
  store i64 %18, ptr %3, align 8
  %19 = getelementptr inbounds i8, ptr %3, i64 8
  %20 = extractvalue { i64, i64 } %17, 1
  store i64 %20, ptr %19, align 8
  %21 = load ptr, ptr %16, align 8
  %22 = load ptr, ptr %21, align 8
  call void %22(ptr noundef nonnull align 8 dereferenceable(112) %16, ptr noundef nonnull align 8 dereferenceable(16) %3) #12
  %23 = load ptr, ptr %8, align 8
  %24 = load ptr, ptr %6, align 8
  %25 = getelementptr inbounds i8, ptr %24, i64 8
  %26 = load <2 x i64>, ptr %25, align 8
  store <2 x i64> %26, ptr %4, align 16
  call void @_ZN8GCTracer15report_gc_startEN7GCCause5CauseERK11TimeInstantI30CompositeCounterRepresentation29CompositeElapsedCounterSourceE(ptr noundef nonnull align 8 dereferenceable(80) %23, i32 noundef %1, ptr noundef nonnull align 8 dereferenceable(16) %4) #12
  %27 = load ptr, ptr %0, align 8
  %28 = load ptr, ptr %8, align 8
  call void @_ZN13CollectedHeap20trace_heap_before_gcEPK8GCTracer(ptr noundef nonnull align 8 dereferenceable(104) %27, ptr noundef %28) #12
  %29 = load ptr, ptr %0, align 8
  %30 = getelementptr inbounds i8, ptr %29, i64 1648
  %31 = load ptr, ptr %30, align 8
  %32 = load ptr, ptr %31, align 8
  %33 = getelementptr inbounds i8, ptr %32, i64 24
  %34 = load ptr, ptr %33, align 8
  call void %34(ptr noundef nonnull align 8 dereferenceable(193) %31) #12
  %35 = load ptr, ptr %0, align 8
  %36 = getelementptr inbounds i8, ptr %35, i64 1896
  call void @_ZN23TraceMemoryManagerStats10initializeEP15GCMemoryManagerN7GCCause5CauseEPKcbbbbbbbb(ptr noundef nonnull align 8 dereferenceable(32) %11, ptr noundef nonnull %36, i32 noundef %1, ptr noundef nonnull @.str, i1 noundef zeroext true, i1 noundef zeroext true, i1 noundef zeroext true, i1 noundef zeroext true, i1 noundef zeroext true, i1 noundef zeroext true, i1 noundef zeroext true, i1 noundef zeroext true) #12
  ret void
}